; Function Attrs: nounwind uwtable
define range(i32 -519, 1) i32 @nghttp2_hd_inflate_change_table_size(ptr noundef captures(none) %0, i64 noundef %1) local_unnamed_addr #0 {
  %3 = getelementptr inbounds nuw i8, ptr %0, i64 228
  %4 = load i32, ptr %3, align 4, !tbaa !57
  %switch = icmp ult i32 %4, 2
  br i1 %switch, label %5, label %hd_context_shrink_table_size.exit

5:                                                ; preds = %2
  %6 = getelementptr inbounds nuw i8, ptr %0, i64 200
  store i64 %1, ptr %6, align 8, !tbaa !50
  %7 = getelementptr inbounds nuw i8, ptr %0, i64 48
  %8 = load i64, ptr %7, align 8, !tbaa !74
  %9 = icmp ugt i64 %8, %1
  br i1 %9, label %10, label %hd_context_shrink_table_size.exit

10:                                               ; preds = %5
  store i32 0, ptr %3, align 4, !tbaa !57
  %11 = getelementptr inbounds nuw i8, ptr %0, i64 208
  store i64 %1, ptr %11, align 8, !tbaa !55
  store i64 %1, ptr %7, align 8, !tbaa !74
  %12 = getelementptr inbounds nuw i8, ptr %0, i64 32
  %13 = load ptr, ptr %12, align 8, !tbaa !33
  %14 = getelementptr inbounds nuw i8, ptr %0, i64 24
  %15 = getelementptr inbounds nuw i8, ptr %0, i64 40
  %16 = load i64, ptr %15, align 8, !tbaa !42
  %17 = icmp ugt i64 %16, %1
  br i1 %17, label %.lr.ph24.i, label %hd_context_shrink_table_size.exit

.lr.ph24.i:                                       ; preds = %10
  %18 = getelementptr inbounds nuw i8, ptr %0, i64 16
  %19 = getelementptr inbounds nuw i8, ptr %0, i64 8
  br label %.lr.ph24.split.us.i

.lr.ph24.split.us.i:                              ; preds = %hd_ringbuf_pop_back.exit.us.i, %.lr.ph24.i
  %20 = phi i64 [ %40, %hd_ringbuf_pop_back.exit.us.i ], [ %16, %.lr.ph24.i ]
  %21 = load i64, ptr %14, align 8, !tbaa !71
  %.not.us.i = icmp eq i64 %21, 0
  br i1 %.not.us.i, label %hd_context_shrink_table_size.exit, label %hd_ringbuf_pop_back.exit.us.i

hd_ringbuf_pop_back.exit.us.i:                    ; preds = %.lr.ph24.split.us.i
  %22 = add i64 %21, -1
  %23 = load ptr, ptr %0, align 8, !tbaa !40
  %24 = load i64, ptr %18, align 8, !tbaa !63
  %25 = add i64 %24, %22
  %26 = load i64, ptr %19, align 8, !tbaa !41
  %27 = and i64 %25, %26
  %28 = getelementptr inbounds nuw ptr, ptr %23, i64 %27
  %29 = load ptr, ptr %28, align 8, !tbaa !64
  %30 = load ptr, ptr %29, align 8, !tbaa !31
  %31 = getelementptr inbounds nuw i8, ptr %30, i64 24
  %32 = load i64, ptr %31, align 8, !tbaa !22
  %33 = getelementptr inbounds nuw i8, ptr %29, i64 8
  %34 = load ptr, ptr %33, align 8, !tbaa !32
  %35 = getelementptr inbounds nuw i8, ptr %34, i64 24
  %36 = load i64, ptr %35, align 8, !tbaa !22
  %.neg13 = add i64 %20, -32
  %37 = add i64 %32, %36
  %38 = sub i64 %.neg13, %37
  store i64 %38, ptr %15, align 8, !tbaa !42
  store i64 %22, ptr %14, align 8, !tbaa !62
  tail call void @nghttp2_rcbuf_decref(ptr noundef %34) #12
  %39 = load ptr, ptr %29, align 8, !tbaa !31
  tail call void @nghttp2_rcbuf_decref(ptr noundef %39) #12
  tail call void @nghttp2_mem_free(ptr noundef %13, ptr noundef nonnull %29) #12
  %40 = load i64, ptr %15, align 8, !tbaa !42
  %41 = load i64, ptr %7, align 8, !tbaa !39
  %42 = icmp ugt i64 %40, %41
  br i1 %42, label %.lr.ph24.split.us.i, label %hd_context_shrink_table_size.exit, !llvm.loop !72

hd_context_shrink_table_size.exit:                ; preds = %hd_ringbuf_pop_back.exit.us.i, %.lr.ph24.split.us.i, %10, %5, %2
  %.0 = phi i32 [ -519, %2 ], [ 0, %5 ], [ 0, %10 ], [ 0, %.lr.ph24.split.us.i ], [ 0, %hd_ringbuf_pop_back.exit.us.i ]
  ret i32 %.0
}